target datalayout = "e-m:e-p270:32:32-p271:32:32-p272:64:64-i64:64-i128:128-f80:128-n8:16:32:64-S128"
target triple = "x86_64-pc-linux-gnu"

%struct._spdu_uds_mapping = type { i32, i32, i8, i32, i32 }

; Function Attrs: nounwind null_pointer_is_valid sspstrong uwtable
define internal ptr @copy_spdu_uds_mapping_cb(ptr noundef %0, ptr noundef %1, i64 noundef %2) #3 {
  %4 = alloca ptr, align 8
  %5 = alloca ptr, align 8
  %6 = alloca i64, align 8
  %7 = alloca ptr, align 8
  %8 = alloca ptr, align 8
  store ptr %0, ptr %4, align 8
  store ptr %1, ptr %5, align 8
  store i64 %2, ptr %6, align 8
  call void @llvm.lifetime.start.p0(i64 8, ptr %7) #14
  %9 = load ptr, ptr %4, align 8
  store ptr %9, ptr %7, align 8
  call void @llvm.lifetime.start.p0(i64 8, ptr %8) #14
  %10 = load ptr, ptr %5, align 8
  store ptr %10, ptr %8, align 8
  %11 = load ptr, ptr %8, align 8
  %12 = getelementptr inbounds nuw %struct._spdu_uds_mapping, ptr %11, i32 0, i32 0
  %13 = load i32, ptr %12, align 4
  %14 = load ptr, ptr %7, align 8
  %15 = getelementptr inbounds nuw %struct._spdu_uds_mapping, ptr %14, i32 0, i32 0
  store i32 %13, ptr %15, align 4
  %16 = load ptr, ptr %8, align 8
  %17 = getelementptr inbounds nuw %struct._spdu_uds_mapping, ptr %16, i32 0, i32 1
  %18 = load i32, ptr %17, align 4
  %19 = load ptr, ptr %7, align 8
  %20 = getelementptr inbounds nuw %struct._spdu_uds_mapping, ptr %19, i32 0, i32 1
  store i32 %18, ptr %20, align 4
  %21 = load ptr, ptr %8, align 8
  %22 = getelementptr inbounds nuw %struct._spdu_uds_mapping, ptr %21, i32 0, i32 2
  %23 = load i8, ptr %22, align 4, !range !6, !noundef !7
  %24 = trunc i8 %23 to i1
  %25 = load ptr, ptr %7, align 8
  %26 = getelementptr inbounds nuw %struct._spdu_uds_mapping, ptr %25, i32 0, i32 2
  %27 = zext i1 %24 to i8
  store i8 %27, ptr %26, align 4
  %28 = load ptr, ptr %8, align 8
  %29 = getelementptr inbounds nuw %struct._spdu_uds_mapping, ptr %28, i32 0, i32 3
  %30 = load i32, ptr %29, align 4
  %31 = load ptr, ptr %7, align 8
  %32 = getelementptr inbounds nuw %struct._spdu_uds_mapping, ptr %31, i32 0, i32 3
  store i32 %30, ptr %32, align 4
  %33 = load ptr, ptr %8, align 8
  %34 = getelementptr inbounds nuw %struct._spdu_uds_mapping, ptr %33, i32 0, i32 4
  %35 = load i32, ptr %34, align 4
  %36 = load ptr, ptr %7, align 8
  %37 = getelementptr inbounds nuw %struct._spdu_uds_mapping, ptr %36, i32 0, i32 4
  store i32 %35, ptr %37, align 4
  %38 = load ptr, ptr %7, align 8
  call void @llvm.lifetime.end.p0(i64 8, ptr %8) #14
  call void @llvm.lifetime.end.p0(i64 8, ptr %7) #14
  ret ptr %38
}